; Function Attrs: mustprogress uwtable
define hidden noundef i32 @_ZN5arith6solver19internalize_numeralEP3appRK8rational(ptr noundef nonnull align 8 dereferenceable(1144) %this, ptr noundef %n, ptr noundef nonnull align 8 dereferenceable(32) %val) local_unnamed_addr #3 align 2 {
entry:
  %vi_equal.i9 = alloca i32, align 4
  %vi_equal.i = alloca i32, align 4
  %call = tail call noundef i32 @_ZN5arith6solver7mk_evarEP4expr(ptr noundef nonnull align 8 dereferenceable(1144) %this, ptr noundef %n)
  %call2 = tail call noundef i32 @_ZNK5arith6solver9get_lpvarEi(ptr noundef nonnull align 8 dereferenceable(1144) %this, i32 noundef %call)
  %cmp = icmp eq i32 %call2, -1
  br i1 %cmp, label %if.then, label %if.end

if.then:                                          ; preds = %entry
  %m_solver.i = getelementptr inbounds i8, ptr %this, i64 592
  %0 = load ptr, ptr %m_solver.i, align 8
  %call.i = tail call noundef ptr @_ZNK4expr8get_sortEv(ptr noundef nonnull align 4 dereferenceable(16) %n)
  %m_info.i.i.i.i.i = getelementptr inbounds i8, ptr %call.i, i64 24
  %1 = load ptr, ptr %m_info.i.i.i.i.i, align 8
  %cmp.i.i.i.i.i = icmp eq ptr %1, null
  br i1 %cmp.i.i.i.i.i, label %_ZNK17arith_recognizers6is_intEPK4expr.exit, label %_ZNK4decl13get_family_idEv.exit.thread.i.i.i.i

_ZNK4decl13get_family_idEv.exit.thread.i.i.i.i:   ; preds = %if.then
  %2 = load i32, ptr %1, align 8
  %cmp6.i.i.i.i = icmp eq i32 %2, 5
  br i1 %cmp6.i.i.i.i, label %cond.false.i3.i.i.i.i, label %_ZNK17arith_recognizers6is_intEPK4expr.exit

cond.false.i3.i.i.i.i:                            ; preds = %_ZNK4decl13get_family_idEv.exit.thread.i.i.i.i
  %m_kind.i.i.i.i.i.i = getelementptr inbounds i8, ptr %1, i64 4
  %3 = load i32, ptr %m_kind.i.i.i.i.i.i, align 4
  %cmp3.i.i.i.i = icmp eq i32 %3, 1
  br label %_ZNK17arith_recognizers6is_intEPK4expr.exit

_ZNK17arith_recognizers6is_intEPK4expr.exit:      ; preds = %if.then, %_ZNK4decl13get_family_idEv.exit.thread.i.i.i.i, %cond.false.i3.i.i.i.i
  %4 = phi i1 [ %cmp3.i.i.i.i, %cond.false.i3.i.i.i.i ], [ false, %_ZNK4decl13get_family_idEv.exit.thread.i.i.i.i ], [ false, %if.then ]
  %call5 = tail call noundef i32 @_ZN2lp10lar_solver7add_varEjb(ptr noundef nonnull align 8 dereferenceable(1888) %0, i32 noundef %call, i1 noundef zeroext %4)
  call void @llvm.lifetime.start.p0(i64 4, ptr nonnull %vi_equal.i)
  %5 = load ptr, ptr %m_solver.i, align 8
  %call2.i = call noundef i32 @_ZN2lp10lar_solver28add_var_bound_check_on_equalEjNS_16lconstraint_kindERK8rationalRj(ptr noundef nonnull align 8 dereferenceable(1888) %5, i32 noundef %call5, i32 noundef 2, ptr noundef nonnull align 8 dereferenceable(32) %val, ptr noundef nonnull align 4 dereferenceable(4) %vi_equal.i)
  call void @_ZN5arith6solver18add_def_constraintEj(ptr noundef nonnull align 8 dereferenceable(1144) %this, i32 noundef %call2.i)
  %6 = load i32, ptr %vi_equal.i, align 4
  %cmp.not.i = icmp eq i32 %6, -1
  br i1 %cmp.not.i, label %_ZN5arith6solver31add_def_constraint_and_equalityEjN2lp16lconstraint_kindERK8rational.exit, label %if.then.i

if.then.i:                                        ; preds = %_ZNK17arith_recognizers6is_intEPK4expr.exit
  call void @_ZN5arith6solver29report_equality_of_fixed_varsEjj(ptr noundef nonnull align 8 dereferenceable(1144) %this, i32 noundef %call5, i32 noundef %6)
  br label %_ZN5arith6solver31add_def_constraint_and_equalityEjN2lp16lconstraint_kindERK8rational.exit

_ZN5arith6solver31add_def_constraint_and_equalityEjN2lp16lconstraint_kindERK8rational.exit: ; preds = %_ZNK17arith_recognizers6is_intEPK4expr.exit, %if.then.i
  %m_new_eq.i = getelementptr inbounds i8, ptr %this, i64 152
  store i8 1, ptr %m_new_eq.i, align 8
  call void @llvm.lifetime.end.p0(i64 4, ptr nonnull %vi_equal.i)
  call void @llvm.lifetime.start.p0(i64 4, ptr nonnull %vi_equal.i9)
  %7 = load ptr, ptr %m_solver.i, align 8
  %call2.i11 = call noundef i32 @_ZN2lp10lar_solver28add_var_bound_check_on_equalEjNS_16lconstraint_kindERK8rationalRj(ptr noundef nonnull align 8 dereferenceable(1888) %7, i32 noundef %call5, i32 noundef -2, ptr noundef nonnull align 8 dereferenceable(32) %val, ptr noundef nonnull align 4 dereferenceable(4) %vi_equal.i9)
  call void @_ZN5arith6solver18add_def_constraintEj(ptr noundef nonnull align 8 dereferenceable(1144) %this, i32 noundef %call2.i11)
  %8 = load i32, ptr %vi_equal.i9, align 4
  %cmp.not.i12 = icmp eq i32 %8, -1
  br i1 %cmp.not.i12, label %_ZN5arith6solver31add_def_constraint_and_equalityEjN2lp16lconstraint_kindERK8rational.exit15, label %if.then.i13

if.then.i13:                                      ; preds = %_ZN5arith6solver31add_def_constraint_and_equalityEjN2lp16lconstraint_kindERK8rational.exit
  call void @_ZN5arith6solver29report_equality_of_fixed_varsEjj(ptr noundef nonnull align 8 dereferenceable(1144) %this, i32 noundef %call5, i32 noundef %8)
  br label %_ZN5arith6solver31add_def_constraint_and_equalityEjN2lp16lconstraint_kindERK8rational.exit15

_ZN5arith6solver31add_def_constraint_and_equalityEjN2lp16lconstraint_kindERK8rational.exit15: ; preds = %_ZN5arith6solver31add_def_constraint_and_equalityEjN2lp16lconstraint_kindERK8rational.exit, %if.then.i13
  store i8 1, ptr %m_new_eq.i, align 8
  call void @llvm.lifetime.end.p0(i64 4, ptr nonnull %vi_equal.i9)
  call void @_ZN5arith6solver18register_fixed_varEiRK8rational(ptr noundef nonnull align 8 dereferenceable(1144) %this, i32 noundef %call, ptr noundef nonnull align 8 dereferenceable(32) %val)
  br label %if.end

if.end:                                           ; preds = %_ZN5arith6solver31add_def_constraint_and_equalityEjN2lp16lconstraint_kindERK8rational.exit15, %entry
  ret i32 %call
}